; ModuleID = '49/36.c'
source_filename = "49/36.c"
target datalayout = "e-m:e-p270:32:32-p271:32:32-p272:64:64-i64:64-f80:128-n8:16:32:64-S128"
target triple = "x86_64-pc-linux-gnu"

@s = common dso_local global [555 x i8] zeroinitializer, align 16
@.str = private unnamed_addr constant [3 x i8] c"%c\00", align 1
@.str.1 = private unnamed_addr constant [4 x i8] c"%c\0A\00", align 1

; Function Attrs: noinline nounwind uwtable
define dso_local i32 @f(i32 %0, i32 %1) #0 {
  %3 = alloca i32, align 4
  %4 = alloca i32, align 4
  %5 = alloca i32, align 4
  %6 = alloca i32, align 4
  store i32 %0, i32* %4, align 4
  store i32 %1, i32* %5, align 4
  %7 = load i32, i32* %5, align 4
  %8 = icmp eq i32 %7, 2
  br i1 %8, label %9, label %24

9:                                                ; preds = %2
  %10 = load i32, i32* %4, align 4
  %11 = sext i32 %10 to i64
  %12 = getelementptr inbounds [555 x i8], [555 x i8]* @s, i64 0, i64 %11
  %13 = load i8, i8* %12, align 1
  %14 = sext i8 %13 to i32
  %15 = load i32, i32* %4, align 4
  %16 = add nsw i32 %15, 1
  %17 = sext i32 %16 to i64
  %18 = getelementptr inbounds [555 x i8], [555 x i8]* @s, i64 0, i64 %17
  %19 = load i8, i8* %18, align 1
  %20 = sext i8 %19 to i32
  %21 = icmp eq i32 %14, %20
  br i1 %21, label %22, label %23

22:                                               ; preds = %9
  store i32 1, i32* %3, align 4
  br label %80

23:                                               ; preds = %9
  store i32 0, i32* %3, align 4
  br label %80

24:                                               ; preds = %2
  %25 = load i32, i32* %5, align 4
  %26 = icmp eq i32 %25, 3
  br i1 %26, label %27, label %42

27:                                               ; preds = %24
  %28 = load i32, i32* %4, align 4
  %29 = sext i32 %28 to i64
  %30 = getelementptr inbounds [555 x i8], [555 x i8]* @s, i64 0, i64 %29
  %31 = load i8, i8* %30, align 1
  %32 = sext i8 %31 to i32
  %33 = load i32, i32* %4, align 4
  %34 = add nsw i32 %33, 2
  %35 = sext i32 %34 to i64
  %36 = getelementptr inbounds [555 x i8], [555 x i8]* @s, i64 0, i64 %35
  %37 = load i8, i8* %36, align 1
  %38 = sext i8 %37 to i32
  %39 = icmp eq i32 %32, %38
  br i1 %39, label %40, label %41

40:                                               ; preds = %27
  store i32 1, i32* %3, align 4
  br label %80

41:                                               ; preds = %27
  store i32 0, i32* %3, align 4
  br label %80

42:                                               ; preds = %24
  store i32 0, i32* %6, align 4
  br label %43

43:                                               ; preds = %70, %42
  %44 = load i32, i32* %6, align 4
  %45 = load i32, i32* %5, align 4
  %46 = sdiv i32 %45, 2
  %47 = sub nsw i32 %46, 1
  %48 = icmp sle i32 %44, %47
  br i1 %48, label %49, label %73

49:                                               ; preds = %43
  %50 = load i32, i32* %4, align 4
  %51 = load i32, i32* %6, align 4
  %52 = add nsw i32 %50, %51
  %53 = sext i32 %52 to i64
  %54 = getelementptr inbounds [555 x i8], [555 x i8]* @s, i64 0, i64 %53
  %55 = load i8, i8* %54, align 1
  %56 = sext i8 %55 to i32
  %57 = load i32, i32* %4, align 4
  %58 = load i32, i32* %5, align 4
  %59 = add nsw i32 %57, %58
  %60 = sub nsw i32 %59, 1
  %61 = load i32, i32* %6, align 4
  %62 = sub nsw i32 %60, %61
  %63 = sext i32 %62 to i64
  %64 = getelementptr inbounds [555 x i8], [555 x i8]* @s, i64 0, i64 %63
  %65 = load i8, i8* %64, align 1
  %66 = sext i8 %65 to i32
  %67 = icmp ne i32 %56, %66
  br i1 %67, label %68, label %69

68:                                               ; preds = %49
  br label %73

69:                                               ; preds = %49
  br label %70

70:                                               ; preds = %69
  %71 = load i32, i32* %6, align 4
  %72 = add nsw i32 %71, 1
  store i32 %72, i32* %6, align 4
  br label %43

73:                                               ; preds = %68, %43
  %74 = load i32, i32* %6, align 4
  %75 = load i32, i32* %5, align 4
  %76 = sdiv i32 %75, 2
  %77 = icmp eq i32 %74, %76
  br i1 %77, label %78, label %79

78:                                               ; preds = %73
  store i32 1, i32* %3, align 4
  br label %80

79:                                               ; preds = %73
  store i32 0, i32* %3, align 4
  br label %80

80:                                               ; preds = %79, %78, %41, %40, %23, %22
  %81 = load i32, i32* %3, align 4
  ret i32 %81
}

; Function Attrs: noinline nounwind uwtable
define dso_local i32 @main() #0 {
  %1 = alloca i32, align 4
  %2 = alloca i32, align 4
  %3 = alloca i32, align 4
  %4 = alloca i32, align 4
  %5 = alloca i32, align 4
  store i32 0, i32* %1, align 4
  %6 = call i32 (i8*, ...) bitcast (i32 (...)* @gets to i32 (i8*, ...)*)(i8* getelementptr inbounds ([555 x i8], [555 x i8]* @s, i64 0, i64 0))
  %7 = call i64 @strlen(i8* getelementptr inbounds ([555 x i8], [555 x i8]* @s, i64 0, i64 0)) #3
  %8 = trunc i64 %7 to i32
  store i32 %8, i32* %5, align 4
  %9 = load i32, i32* %5, align 4
  store i32 %9, i32* %2, align 4
  br label %10

10:                                               ; preds = %22, %0
  %11 = load i32, i32* %2, align 4
  %12 = icmp sgt i32 %11, 0
  br i1 %12, label %13, label %25

13:                                               ; preds = %10
  %14 = load i32, i32* %2, align 4
  %15 = sub nsw i32 %14, 1
  %16 = sext i32 %15 to i64
  %17 = getelementptr inbounds [555 x i8], [555 x i8]* @s, i64 0, i64 %16
  %18 = load i8, i8* %17, align 1
  %19 = load i32, i32* %2, align 4
  %20 = sext i32 %19 to i64
  %21 = getelementptr inbounds [555 x i8], [555 x i8]* @s, i64 0, i64 %20
  store i8 %18, i8* %21, align 1
  br label %22

22:                                               ; preds = %13
  %23 = load i32, i32* %2, align 4
  %24 = add nsw i32 %23, -1
  store i32 %24, i32* %2, align 4
  br label %10

25:                                               ; preds = %10
  store i8 0, i8* getelementptr inbounds ([555 x i8], [555 x i8]* @s, i64 0, i64 0), align 16
  store i32 2, i32* %3, align 4
  br label %26

26:                                               ; preds = %77, %25
  %27 = load i32, i32* %3, align 4
  %28 = load i32, i32* %5, align 4
  %29 = icmp sle i32 %27, %28
  br i1 %29, label %30, label %80

30:                                               ; preds = %26
  store i32 1, i32* %2, align 4
  br label %31

31:                                               ; preds = %73, %30
  %32 = load i32, i32* %2, align 4
  %33 = load i32, i32* %5, align 4
  %34 = add nsw i32 %33, 1
  %35 = load i32, i32* %3, align 4
  %36 = sub nsw i32 %34, %35
  %37 = icmp sle i32 %32, %36
  br i1 %37, label %38, label %76

38:                                               ; preds = %31
  %39 = load i32, i32* %2, align 4
  %40 = load i32, i32* %3, align 4
  %41 = call i32 @f(i32 %39, i32 %40)
  %42 = icmp eq i32 %41, 1
  br i1 %42, label %43, label %72

43:                                               ; preds = %38
  %44 = load i32, i32* %2, align 4
  store i32 %44, i32* %4, align 4
  br label %45

45:                                               ; preds = %59, %43
  %46 = load i32, i32* %4, align 4
  %47 = load i32, i32* %2, align 4
  %48 = load i32, i32* %3, align 4
  %49 = add nsw i32 %47, %48
  %50 = sub nsw i32 %49, 1
  %51 = icmp slt i32 %46, %50
  br i1 %51, label %52, label %62

52:                                               ; preds = %45
  %53 = load i32, i32* %4, align 4
  %54 = sext i32 %53 to i64
  %55 = getelementptr inbounds [555 x i8], [555 x i8]* @s, i64 0, i64 %54
  %56 = load i8, i8* %55, align 1
  %57 = sext i8 %56 to i32
  %58 = call i32 (i8*, ...) @printf(i8* getelementptr inbounds ([3 x i8], [3 x i8]* @.str, i64 0, i64 0), i32 %57)
  br label %59

59:                                               ; preds = %52
  %60 = load i32, i32* %4, align 4
  %61 = add nsw i32 %60, 1
  store i32 %61, i32* %4, align 4
  br label %45

62:                                               ; preds = %45
  %63 = load i32, i32* %2, align 4
  %64 = load i32, i32* %3, align 4
  %65 = add nsw i32 %63, %64
  %66 = sub nsw i32 %65, 1
  %67 = sext i32 %66 to i64
  %68 = getelementptr inbounds [555 x i8], [555 x i8]* @s, i64 0, i64 %67
  %69 = load i8, i8* %68, align 1
  %70 = sext i8 %69 to i32
  %71 = call i32 (i8*, ...) @printf(i8* getelementptr inbounds ([4 x i8], [4 x i8]* @.str.1, i64 0, i64 0), i32 %70)
  br label %72

72:                                               ; preds = %62, %38
  br label %73

73:                                               ; preds = %72
  %74 = load i32, i32* %2, align 4
  %75 = add nsw i32 %74, 1
  store i32 %75, i32* %2, align 4
  br label %31

76:                                               ; preds = %31
  br label %77

77:                                               ; preds = %76
  %78 = load i32, i32* %3, align 4
  %79 = add nsw i32 %78, 1
  store i32 %79, i32* %3, align 4
  br label %26

80:                                               ; preds = %26
  ret i32 0
}

declare dso_local i32 @gets(...) #1

; Function Attrs: nounwind readonly
declare dso_local i64 @strlen(i8*) #2

declare dso_local i32 @printf(i8*, ...) #1


!llvm.module.flags = !{!0}
!llvm.ident = !{!1}

!0 = !{i32 1, !"wchar_size", i32 4}
!1 = !{!"clang version 10.0.0-4ubuntu1 "}
